; Function Attrs: nounwind uwtable
define noalias nonnull ptr @l_Lake_Module_leanArts(ptr noundef %0) local_unnamed_addr #0 {
  %2 = getelementptr inbounds nuw i8, ptr %0, i64 24
  %3 = load ptr, ptr %2, align 8, !tbaa !4
  %4 = ptrtoint ptr %3 to i64
  %5 = and i64 %4, 1
  %.not = icmp eq i64 %5, 0
  br i1 %.not, label %6, label %lean_inc.exit

6:                                                ; preds = %1
  %.val.i = load i32, ptr %3, align 4, !tbaa !8
  %7 = icmp sgt i32 %.val.i, 0
  br i1 %7, label %8, label %10, !prof !11

8:                                                ; preds = %6
  %9 = add nuw i32 %.val.i, 1
  store i32 %9, ptr %3, align 4, !tbaa !8
  br label %lean_inc.exit

10:                                               ; preds = %6
  %.not.i = icmp eq i32 %.val.i, 0
  br i1 %.not.i, label %lean_inc.exit, label %11

11:                                               ; preds = %10
  tail call void @lean_inc_ref_cold(ptr noundef nonnull %3) #3
  br label %lean_inc.exit

lean_inc.exit:                                    ; preds = %11, %10, %8, %1
  tail call void @lean_inc_heartbeat() #3
  %12 = tail call noalias ptr @mi_malloc_small(i64 noundef 16) #3
  %13 = icmp eq ptr %12, null
  br i1 %13, label %14, label %lean_alloc_ctor.exit

14:                                               ; preds = %lean_inc.exit
  tail call void @lean_internal_panic_out_of_memory() #4
  unreachable

lean_alloc_ctor.exit:                             ; preds = %lean_inc.exit
  %15 = getelementptr inbounds nuw i8, ptr %12, i64 4
  store i32 1, ptr %12, align 4, !tbaa !8
  store i32 65552, ptr %15, align 4
  %16 = getelementptr inbounds nuw i8, ptr %12, i64 8
  store ptr %3, ptr %16, align 8, !tbaa !4
  %17 = load ptr, ptr @l_Lake_Module_keyword, align 8, !tbaa !4
  %18 = load ptr, ptr @l_Lake_Module_leanArtsFacet, align 8, !tbaa !4
  tail call void @lean_inc_heartbeat() #3
  %19 = tail call noalias ptr @mi_malloc_small(i64 noundef 40) #3
  %20 = icmp eq ptr %19, null
  br i1 %20, label %21, label %lean_alloc_ctor.exit13

21:                                               ; preds = %lean_alloc_ctor.exit
  tail call void @lean_internal_panic_out_of_memory() #4
  unreachable

lean_alloc_ctor.exit13:                           ; preds = %lean_alloc_ctor.exit
  %22 = getelementptr inbounds nuw i8, ptr %19, i64 4
  store i32 1, ptr %19, align 4, !tbaa !8
  store i32 17039400, ptr %22, align 4
  %23 = getelementptr inbounds nuw i8, ptr %19, i64 8
  store ptr %12, ptr %23, align 8, !tbaa !4
  %24 = getelementptr inbounds nuw i8, ptr %19, i64 16
  store ptr %17, ptr %24, align 8, !tbaa !4
  %25 = getelementptr inbounds nuw i8, ptr %19, i64 24
  store ptr %0, ptr %25, align 8, !tbaa !4
  %26 = getelementptr inbounds nuw i8, ptr %19, i64 32
  store ptr %18, ptr %26, align 8, !tbaa !4
  ret ptr %19
}